target datalayout = "e-m:e-p270:32:32-p271:32:32-p272:64:64-i64:64-i128:128-f80:128-n8:16:32:64-S128"
target triple = "x86_64-pc-linux-gnu"

; Function Attrs: mustprogress nounwind uwtable
define internal noundef zeroext i1 @_ZL30Shell_CharNeedsQuotesOnWindowsc(i8 noundef signext %0) #6 {
  %2 = alloca i8, align 1
  store i8 %0, ptr %2, align 1
  %3 = load i8, ptr %2, align 1
  %4 = sext i8 %3 to i32
  %5 = icmp eq i32 %4, 39
  br i1 %5, label %30, label %6

6:                                                ; preds = %1
  %7 = load i8, ptr %2, align 1
  %8 = sext i8 %7 to i32
  %9 = icmp eq i32 %8, 35
  br i1 %9, label %30, label %10

10:                                               ; preds = %6
  %11 = load i8, ptr %2, align 1
  %12 = sext i8 %11 to i32
  %13 = icmp eq i32 %12, 38
  br i1 %13, label %30, label %14

14:                                               ; preds = %10
  %15 = load i8, ptr %2, align 1
  %16 = sext i8 %15 to i32
  %17 = icmp eq i32 %16, 60
  br i1 %17, label %30, label %18

18:                                               ; preds = %14
  %19 = load i8, ptr %2, align 1
  %20 = sext i8 %19 to i32
  %21 = icmp eq i32 %20, 62
  br i1 %21, label %30, label %22

22:                                               ; preds = %18
  %23 = load i8, ptr %2, align 1
  %24 = sext i8 %23 to i32
  %25 = icmp eq i32 %24, 124
  br i1 %25, label %30, label %26

26:                                               ; preds = %22
  %27 = load i8, ptr %2, align 1
  %28 = sext i8 %27 to i32
  %29 = icmp eq i32 %28, 94
  br label %30

30:                                               ; preds = %26, %22, %18, %14, %10, %6, %1
  %31 = phi i1 [ true, %22 ], [ true, %18 ], [ true, %14 ], [ true, %10 ], [ true, %6 ], [ true, %1 ], [ %29, %26 ]
  ret i1 %31
}

; Function Attrs: mustprogress nounwind uwtable
define internal noundef zeroext i1 @_ZL27Shell_CharNeedsQuotesOnUnixc(i8 noundef signext %0) #6 {
  %2 = alloca i8, align 1
  store i8 %0, ptr %2, align 1
  %3 = load i8, ptr %2, align 1
  %4 = sext i8 %3 to i32
  %5 = icmp eq i32 %4, 39
  br i1 %5, label %62, label %6

6:                                                ; preds = %1
  %7 = load i8, ptr %2, align 1
  %8 = sext i8 %7 to i32
  %9 = icmp eq i32 %8, 96
  br i1 %9, label %62, label %10

10:                                               ; preds = %6
  %11 = load i8, ptr %2, align 1
  %12 = sext i8 %11 to i32
  %13 = icmp eq i32 %12, 59
  br i1 %13, label %62, label %14

14:                                               ; preds = %10
  %15 = load i8, ptr %2, align 1
  %16 = sext i8 %15 to i32
  %17 = icmp eq i32 %16, 35
  br i1 %17, label %62, label %18

18:                                               ; preds = %14
  %19 = load i8, ptr %2, align 1
  %20 = sext i8 %19 to i32
  %21 = icmp eq i32 %20, 38
  br i1 %21, label %62, label %22

22:                                               ; preds = %18
  %23 = load i8, ptr %2, align 1
  %24 = sext i8 %23 to i32
  %25 = icmp eq i32 %24, 36
  br i1 %25, label %62, label %26

26:                                               ; preds = %22
  %27 = load i8, ptr %2, align 1
  %28 = sext i8 %27 to i32
  %29 = icmp eq i32 %28, 40
  br i1 %29, label %62, label %30

30:                                               ; preds = %26
  %31 = load i8, ptr %2, align 1
  %32 = sext i8 %31 to i32
  %33 = icmp eq i32 %32, 41
  br i1 %33, label %62, label %34

34:                                               ; preds = %30
  %35 = load i8, ptr %2, align 1
  %36 = sext i8 %35 to i32
  %37 = icmp eq i32 %36, 126
  br i1 %37, label %62, label %38

38:                                               ; preds = %34
  %39 = load i8, ptr %2, align 1
  %40 = sext i8 %39 to i32
  %41 = icmp eq i32 %40, 60
  br i1 %41, label %62, label %42

42:                                               ; preds = %38
  %43 = load i8, ptr %2, align 1
  %44 = sext i8 %43 to i32
  %45 = icmp eq i32 %44, 62
  br i1 %45, label %62, label %46

46:                                               ; preds = %42
  %47 = load i8, ptr %2, align 1
  %48 = sext i8 %47 to i32
  %49 = icmp eq i32 %48, 124
  br i1 %49, label %62, label %50

50:                                               ; preds = %46
  %51 = load i8, ptr %2, align 1
  %52 = sext i8 %51 to i32
  %53 = icmp eq i32 %52, 42
  br i1 %53, label %62, label %54

54:                                               ; preds = %50
  %55 = load i8, ptr %2, align 1
  %56 = sext i8 %55 to i32
  %57 = icmp eq i32 %56, 94
  br i1 %57, label %62, label %58

58:                                               ; preds = %54
  %59 = load i8, ptr %2, align 1
  %60 = sext i8 %59 to i32
  %61 = icmp eq i32 %60, 92
  br label %62

62:                                               ; preds = %58, %54, %50, %46, %42, %38, %34, %30, %26, %22, %18, %14, %10, %6, %1
  %63 = phi i1 [ true, %54 ], [ true, %50 ], [ true, %46 ], [ true, %42 ], [ true, %38 ], [ true, %34 ], [ true, %30 ], [ true, %26 ], [ true, %22 ], [ true, %18 ], [ true, %14 ], [ true, %10 ], [ true, %6 ], [ true, %1 ], [ %61, %58 ]
  ret i1 %63
}

; Function Attrs: mustprogress nounwind uwtable
define internal noundef zeroext i1 @_ZL22Shell_CharIsWhitespacec(i8 noundef signext %0) #6 {
  %2 = alloca i8, align 1
  store i8 %0, ptr %2, align 1
  %3 = load i8, ptr %2, align 1
  %4 = sext i8 %3 to i32
  %5 = icmp eq i32 %4, 32
  br i1 %5, label %10, label %6

6:                                                ; preds = %1
  %7 = load i8, ptr %2, align 1
  %8 = sext i8 %7 to i32
  %9 = icmp eq i32 %8, 9
  br label %10

10:                                               ; preds = %6, %1
  %11 = phi i1 [ true, %1 ], [ %9, %6 ]
  ret i1 %11
}

; Function Attrs: mustprogress uwtable
define dso_local noundef zeroext i1 @_ZN17cmOutputConverter21Shell_CharNeedsQuotesEci(i8 noundef signext %0, i32 noundef %1) #4 align 2 {
  %3 = alloca i1, align 1
  %4 = alloca i8, align 1
  %5 = alloca i32, align 4
  store i8 %0, ptr %4, align 1
  store i32 %1, ptr %5, align 4
  %6 = load i32, ptr %5, align 4
  %7 = and i32 %6, 256
  %8 = icmp ne i32 %7, 0
  br i1 %8, label %14, label %9

9:                                                ; preds = %2
  %10 = load i32, ptr %5, align 4
  %11 = and i32 %10, 4
  %12 = icmp ne i32 %11, 0
  br i1 %12, label %13, label %14

13:                                               ; preds = %9
  store i1 false, ptr %3, align 1
  br label %43

14:                                               ; preds = %9, %2
  %15 = load i8, ptr %4, align 1
  %16 = call noundef zeroext i1 @_ZL22Shell_CharIsWhitespacec(i8 noundef signext %15)
  br i1 %16, label %17, label %18

17:                                               ; preds = %14
  store i1 true, ptr %3, align 1
  br label %43

18:                                               ; preds = %14
  %19 = load i32, ptr %5, align 4
  %20 = and i32 %19, 1024
  %21 = icmp ne i32 %20, 0
  br i1 %21, label %22, label %28

22:                                               ; preds = %18
  %23 = load i8, ptr %4, align 1
  %24 = sext i8 %23 to i32
  %25 = icmp eq i32 %24, 45
  br i1 %25, label %26, label %27

26:                                               ; preds = %22
  store i1 true, ptr %3, align 1
  br label %43

27:                                               ; preds = %22
  br label %28

28:                                               ; preds = %27, %18
  %29 = load i32, ptr %5, align 4
  %30 = and i32 %29, 256
  %31 = icmp ne i32 %30, 0
  br i1 %31, label %32, label %37

32:                                               ; preds = %28
  %33 = load i8, ptr %4, align 1
  %34 = call noundef zeroext i1 @_ZL27Shell_CharNeedsQuotesOnUnixc(i8 noundef signext %33)
  br i1 %34, label %35, label %36

35:                                               ; preds = %32
  store i1 true, ptr %3, align 1
  br label %43

36:                                               ; preds = %32
  br label %42

37:                                               ; preds = %28
  %38 = load i8, ptr %4, align 1
  %39 = call noundef zeroext i1 @_ZL30Shell_CharNeedsQuotesOnWindowsc(i8 noundef signext %38)
  br i1 %39, label %40, label %41

40:                                               ; preds = %37
  store i1 true, ptr %3, align 1
  br label %43

41:                                               ; preds = %37
  br label %42

42:                                               ; preds = %41, %36
  store i1 false, ptr %3, align 1
  br label %43

43:                                               ; preds = %42, %40, %35, %26, %17, %13
  %44 = load i1, ptr %3, align 1
  ret i1 %44
}