; Function Attrs: mustprogress nofree norecurse nosync nounwind willreturn memory(none) uwtable
define dso_local noundef zeroext i1 @_ZN17cmOutputConverter21Shell_CharNeedsQuotesEci(i8 noundef signext %0, i32 noundef %1) local_unnamed_addr #5 align 2 {
  %3 = and i32 %1, 256
  %.not.not = icmp eq i32 %3, 0
  %4 = and i32 %1, 260
  %or.cond11.not = icmp eq i32 %4, 4
  br i1 %or.cond11.not, label %_ZL27Shell_CharNeedsQuotesOnUnixc.exit, label %5

5:                                                ; preds = %2
  switch i8 %0, label %6 [
    i8 32, label %_ZL27Shell_CharNeedsQuotesOnUnixc.exit
    i8 9, label %_ZL27Shell_CharNeedsQuotesOnUnixc.exit
  ]

6:                                                ; preds = %5
  %7 = and i32 %1, 1024
  %8 = icmp ne i32 %7, 0
  %9 = icmp eq i8 %0, 45
  %or.cond = and i1 %9, %8
  br i1 %or.cond, label %_ZL27Shell_CharNeedsQuotesOnUnixc.exit, label %10

10:                                               ; preds = %6
  br i1 %.not.not, label %12, label %11

11:                                               ; preds = %10
  switch i8 %0, label %_ZL27Shell_CharNeedsQuotesOnUnixc.exit [
    i8 126, label %_ZL27Shell_CharNeedsQuotesOnUnixc.exit.thread
    i8 124, label %_ZL27Shell_CharNeedsQuotesOnUnixc.exit.thread
    i8 96, label %_ZL27Shell_CharNeedsQuotesOnUnixc.exit.thread
    i8 94, label %_ZL27Shell_CharNeedsQuotesOnUnixc.exit.thread
    i8 62, label %_ZL27Shell_CharNeedsQuotesOnUnixc.exit.thread
    i8 60, label %_ZL27Shell_CharNeedsQuotesOnUnixc.exit.thread
    i8 59, label %_ZL27Shell_CharNeedsQuotesOnUnixc.exit.thread
    i8 42, label %_ZL27Shell_CharNeedsQuotesOnUnixc.exit.thread
    i8 41, label %_ZL27Shell_CharNeedsQuotesOnUnixc.exit.thread
    i8 40, label %_ZL27Shell_CharNeedsQuotesOnUnixc.exit.thread
    i8 39, label %_ZL27Shell_CharNeedsQuotesOnUnixc.exit.thread
    i8 38, label %_ZL27Shell_CharNeedsQuotesOnUnixc.exit.thread
    i8 36, label %_ZL27Shell_CharNeedsQuotesOnUnixc.exit.thread
    i8 35, label %_ZL27Shell_CharNeedsQuotesOnUnixc.exit.thread
    i8 92, label %_ZL27Shell_CharNeedsQuotesOnUnixc.exit.thread
  ]

_ZL27Shell_CharNeedsQuotesOnUnixc.exit.thread:    ; preds = %11, %11, %11, %11, %11, %11, %11, %11, %11, %11, %11, %11, %11, %11, %11
  br label %_ZL27Shell_CharNeedsQuotesOnUnixc.exit

12:                                               ; preds = %10
  switch i8 %0, label %_ZL27Shell_CharNeedsQuotesOnUnixc.exit [
    i8 124, label %_ZL30Shell_CharNeedsQuotesOnWindowsc.exit.thread
    i8 62, label %_ZL30Shell_CharNeedsQuotesOnWindowsc.exit.thread
    i8 60, label %_ZL30Shell_CharNeedsQuotesOnWindowsc.exit.thread
    i8 39, label %_ZL30Shell_CharNeedsQuotesOnWindowsc.exit.thread
    i8 38, label %_ZL30Shell_CharNeedsQuotesOnWindowsc.exit.thread
    i8 35, label %_ZL30Shell_CharNeedsQuotesOnWindowsc.exit.thread
    i8 94, label %_ZL30Shell_CharNeedsQuotesOnWindowsc.exit.thread
  ]

_ZL30Shell_CharNeedsQuotesOnWindowsc.exit.thread: ; preds = %12, %12, %12, %12, %12, %12, %12
  br label %_ZL27Shell_CharNeedsQuotesOnUnixc.exit

_ZL27Shell_CharNeedsQuotesOnUnixc.exit:           ; preds = %5, %5, %11, %12, %_ZL30Shell_CharNeedsQuotesOnWindowsc.exit.thread, %_ZL27Shell_CharNeedsQuotesOnUnixc.exit.thread, %6, %2
  %.0 = phi i1 [ false, %2 ], [ true, %5 ], [ true, %6 ], [ true, %_ZL27Shell_CharNeedsQuotesOnUnixc.exit.thread ], [ true, %_ZL30Shell_CharNeedsQuotesOnWindowsc.exit.thread ], [ false, %12 ], [ false, %11 ], [ true, %5 ]
  ret i1 %.0
}